target datalayout = "e-m:e-p270:32:32-p271:32:32-p272:64:64-i64:64-i128:128-f80:128-n8:16:32:64-S128"
target triple = "x86_64-pc-linux-gnu"

%struct.zstream = type { i64, i64, i64, i64, %struct.z_stream_s, ptr }
%struct.z_stream_s = type { ptr, i32, i64, ptr, i32, i64, ptr, ptr, ptr, ptr, ptr, i32, i64, i64 }
%struct.gzfile = type { %struct.zstream, i64, i32, i32, i64, i64, i64, i64, i32, i32, i64, ptr, ptr, ptr, ptr, i64, i64 }
%struct.RString = type { %struct.RBasic, i64, %union.anon }
%struct.RBasic = type { i64, i64 }
%union.anon = type { %struct.anon }
%struct.anon = type { ptr, %union.anon.0 }
%union.anon.0 = type { i64 }

; Function Attrs: inlinehint nounwind sspstrong willreturn memory(read) uwtable
define internal i64 @RSTRING_LEN(i64 noundef %0) #6 {
  %2 = alloca i64, align 8
  store i64 %0, ptr %2, align 8, !tbaa !6
  %3 = load i64, ptr %2, align 8, !tbaa !6
  %4 = inttoptr i64 %3 to ptr
  %5 = getelementptr inbounds nuw %struct.RString, ptr %4, i32 0, i32 1
  %6 = load i64, ptr %5, align 8, !tbaa !88
  ret i64 %6
}

; Function Attrs: inlinehint nounwind sspstrong willreturn memory(none) uwtable
define internal zeroext i1 @RB_NIL_P(i64 noundef %0) #5 {
  %2 = alloca i64, align 8
  store i64 %0, ptr %2, align 8, !tbaa !6
  %3 = load i64, ptr %2, align 8, !tbaa !6
  %4 = icmp eq i64 %3, 4
  ret i1 %4
}

; Function Attrs: nounwind sspstrong uwtable
define internal i64 @gzfile_reader_end_run(i64 noundef %0) #0 {
  %2 = alloca i64, align 8
  %3 = alloca ptr, align 8
  store i64 %0, ptr %2, align 8, !tbaa !6
  call void @llvm.lifetime.start.p0(i64 8, ptr %3) #23
  %4 = load i64, ptr %2, align 8, !tbaa !6
  %5 = inttoptr i64 %4 to ptr
  store ptr %5, ptr %3, align 8, !tbaa !57
  %6 = load ptr, ptr %3, align 8, !tbaa !57
  %7 = getelementptr inbounds nuw %struct.gzfile, ptr %6, i32 0, i32 0
  %8 = getelementptr inbounds nuw %struct.zstream, ptr %7, i32 0, i32 0
  %9 = load i64, ptr %8, align 8, !tbaa !59
  %10 = and i64 %9, 4
  %11 = icmp ne i64 %10, 0
  br i1 %11, label %12, label %37

12:                                               ; preds = %1
  %13 = load ptr, ptr %3, align 8, !tbaa !57
  %14 = getelementptr inbounds nuw %struct.gzfile, ptr %13, i32 0, i32 0
  %15 = getelementptr inbounds nuw %struct.zstream, ptr %14, i32 0, i32 1
  %16 = load i64, ptr %15, align 8, !tbaa !60
  %17 = call zeroext i1 @RB_NIL_P(i64 noundef %16) #24
  br i1 %17, label %18, label %19

18:                                               ; preds = %12
  br label %25

19:                                               ; preds = %12
  %20 = load ptr, ptr %3, align 8, !tbaa !57
  %21 = getelementptr inbounds nuw %struct.gzfile, ptr %20, i32 0, i32 0
  %22 = getelementptr inbounds nuw %struct.zstream, ptr %21, i32 0, i32 1
  %23 = load i64, ptr %22, align 8, !tbaa !60
  %24 = call i64 @RSTRING_LEN(i64 noundef %23) #25
  br label %25

25:                                               ; preds = %19, %18
  %26 = phi i64 [ 0, %18 ], [ %24, %19 ]
  %27 = icmp eq i64 %26, 0
  br i1 %27, label %28, label %37

28:                                               ; preds = %25
  %29 = load ptr, ptr %3, align 8, !tbaa !57
  %30 = getelementptr inbounds nuw %struct.gzfile, ptr %29, i32 0, i32 0
  %31 = getelementptr inbounds nuw %struct.zstream, ptr %30, i32 0, i32 0
  %32 = load i64, ptr %31, align 8, !tbaa !59
  %33 = and i64 %32, 512
  %34 = icmp ne i64 %33, 0
  br i1 %34, label %37, label %35

35:                                               ; preds = %28
  %36 = load ptr, ptr %3, align 8, !tbaa !57
  call void @gzfile_check_footer(ptr noundef %36, i64 noundef 4)
  br label %37

37:                                               ; preds = %35, %28, %25, %1
  call void @llvm.lifetime.end.p0(i64 8, ptr %3) #23
  ret i64 4
}