; Function Attrs: nounwind sspstrong uwtable
define internal noundef i64 @gzfile_reader_end_run(i64 noundef %0) #0 {
  %2 = inttoptr i64 %0 to ptr
  %3 = load i64, ptr %2, align 8, !tbaa !113
  %4 = and i64 %3, 4
  %.not = icmp eq i64 %4, 0
  br i1 %.not, label %16, label %5

5:                                                ; preds = %1
  %6 = getelementptr inbounds nuw i8, ptr %2, i64 8
  %7 = load i64, ptr %6, align 8, !tbaa !132
  %8 = icmp eq i64 %7, 4
  br i1 %8, label %.critedge, label %9

9:                                                ; preds = %5
  %10 = inttoptr i64 %7 to ptr
  %11 = getelementptr inbounds nuw i8, ptr %10, i64 16
  %12 = load i64, ptr %11, align 8, !tbaa !21
  %13 = and i64 %3, 512
  %14 = or i64 %12, %13
  %or.cond = icmp eq i64 %14, 0
  br i1 %or.cond, label %15, label %16

.critedge:                                        ; preds = %5
  %.old = and i64 %3, 512
  %.not5.old = icmp eq i64 %.old, 0
  br i1 %.not5.old, label %15, label %16

15:                                               ; preds = %9, %.critedge
  tail call fastcc void @gzfile_check_footer(ptr noundef nonnull %2, i64 noundef 4)
  br label %16

16:                                               ; preds = %15, %.critedge, %9, %1
  ret i64 4
}